target datalayout = "e-m:e-p270:32:32-p271:32:32-p272:64:64-i64:64-i128:128-f80:128-n8:16:32:64-S128"
target triple = "x86_64-pc-linux-gnu"

%struct._VAConfigAttrib = type { i32, i32 }
%struct.AVCodecContext = type { ptr, i32, i32, ptr, i32, i32, ptr, ptr, ptr, i64, i32, i32, ptr, i32, %struct.AVRational, %struct.AVRational, %struct.AVRational, i32, i32, i32, i32, i32, %struct.AVRational, i32, i32, i32, i32, i32, i32, i32, i32, i32, i32, i32, ptr, ptr, i32, float, float, float, float, float, float, float, float, float, i32, i32, i32, i32, i32, i32, i32, i32, i32, i32, i32, i32, ptr, ptr, ptr, i32, i32, i32, i32, i32, i32, i32, i32, i32, i32, %struct.AVChannelLayout, i32, i32, i32, i32, i32, i32, i32, i32, ptr, i32, i32, i32, float, float, i32, i32, i32, i32, i32, ptr, i64, i64, float, float, i32, i32, ptr, ptr, i32, i32, i32, i32, i32, ptr, ptr, ptr, ptr, i32, i32, [8 x i64], i32, i32, i32, i32, i32, i32, i32, ptr, ptr, i32, i32, i32, i32, i32, i32, i32, i32, i32, i32, ptr, ptr, i32, i32, ptr, ptr, ptr, ptr, i32, i32, i64, i32, i32, i64, ptr, i64, ptr, i32, ptr, i32 }
%struct.AVRational = type { i32, i32 }
%struct.AVChannelLayout = type { i32, i32, %union.anon, ptr }
%union.anon = type { i64 }
%struct.VAAPIEncodeContext = type { %struct.FFHWBaseEncodeContext, ptr, i32, i32, i32, i32, i32, i32, ptr, ptr, i32, i32, i32, i32, i32, i32, [4 x %struct._VAConfigAttrib], i32, i32, i32, ptr, ptr, [4 x i32], [4 x ptr], [4 x i64], i32, %struct._VAEncMiscParameterRateControl, %struct._VAEncMiscParameterHRD, %struct._VAEncMiscParameterFrameRate, %struct._VAEncMiscParameterBufferMaxFrameSize, %struct._VAEncMiscParameterBufferQualityLevel, ptr, ptr, i32, i32, i32, i32, i32, i32, [20 x i32], [22 x i32], [21 x i32], [23 x i32], i32, i32, ptr, i32, i32 }
%struct.FFHWBaseEncodeContext = type { ptr, ptr, ptr, i32, i32, i32, i32, i32, i32, ptr, ptr, ptr, ptr, ptr, ptr, ptr, ptr, [2 x ptr], i32, i64, i64, i64, i64, i64, i64, i64, [112 x i64], i32, i32, i32, i32, i32, i32, i32, i32, i32, i32, i32, i32, i32, i32, i32, i32, ptr, i32, ptr, i32, ptr }
%struct._VAEncMiscParameterRateControl = type { i32, i32, i32, i32, i32, i32, %union.anon.0, i32, i32, i32, i32, [4 x i32] }
%union.anon.0 = type { %struct.anon }
%struct.anon = type { i32 }
%struct._VAEncMiscParameterHRD = type { i32, i32, [4 x i32] }
%struct._VAEncMiscParameterFrameRate = type { i32, %union.anon.1, [4 x i32] }
%union.anon.1 = type { %struct.anon.2 }
%struct.anon.2 = type { i32 }
%struct._VAEncMiscParameterBufferMaxFrameSize = type { i32, i32, [4 x i32] }
%struct._VAEncMiscParameterBufferQualityLevel = type { i32, [4 x i32] }
%struct.AVVAAPIDeviceContext = type { ptr, i32 }
%struct.FFHWBaseEncodePicture = type { ptr, ptr, ptr, i64, i64, i64, i64, i32, ptr, ptr, i32, i32, i32, i32, ptr, ptr, i32, i32, [16 x ptr], [2 x i32], [2 x [2 x ptr]], ptr, [2 x i32], [2 x i32] }

; Function Attrs: inlinehint nounwind uwtable
define internal void @av_refstruct_pool_uninit(ptr noundef %0) #4 {
  %2 = alloca ptr, align 8
  store ptr %0, ptr %2, align 8, !tbaa !244
  %3 = load ptr, ptr %2, align 8, !tbaa !244
  call void @av_refstruct_unref(ptr noundef %3)
  ret void
}

; Function Attrs: cold nounwind optsize uwtable
define i32 @ff_vaapi_encode_close(ptr noundef %0) #2 {
  %2 = alloca i32, align 4
  %3 = alloca ptr, align 8
  %4 = alloca ptr, align 8
  %5 = alloca ptr, align 8
  %6 = alloca ptr, align 8
  %7 = alloca ptr, align 8
  %8 = alloca i32, align 4
  store ptr %0, ptr %3, align 8, !tbaa !4
  call void @llvm.lifetime.start.p0(i64 8, ptr %4) #10
  %9 = load ptr, ptr %3, align 8, !tbaa !4
  %10 = getelementptr inbounds nuw %struct.AVCodecContext, ptr %9, i32 0, i32 6
  %11 = load ptr, ptr %10, align 8, !tbaa !11
  store ptr %11, ptr %4, align 8, !tbaa !31
  call void @llvm.lifetime.start.p0(i64 8, ptr %5) #10
  %12 = load ptr, ptr %3, align 8, !tbaa !4
  %13 = getelementptr inbounds nuw %struct.AVCodecContext, ptr %12, i32 0, i32 6
  %14 = load ptr, ptr %13, align 8, !tbaa !11
  store ptr %14, ptr %5, align 8, !tbaa !33
  call void @llvm.lifetime.start.p0(i64 8, ptr %6) #10
  call void @llvm.lifetime.start.p0(i64 8, ptr %7) #10
  %15 = load ptr, ptr %4, align 8, !tbaa !31
  %16 = getelementptr inbounds nuw %struct.FFHWBaseEncodeContext, ptr %15, i32 0, i32 43
  %17 = load ptr, ptr %16, align 8, !tbaa !227
  %18 = icmp ne ptr %17, null
  br i1 %18, label %20, label %19

19:                                               ; preds = %1
  store i32 0, ptr %2, align 4
  store i32 1, ptr %8, align 4
  br label %91

20:                                               ; preds = %1
  %21 = load ptr, ptr %4, align 8, !tbaa !31
  %22 = getelementptr inbounds nuw %struct.FFHWBaseEncodeContext, ptr %21, i32 0, i32 15
  %23 = load ptr, ptr %22, align 8, !tbaa !228
  store ptr %23, ptr %6, align 8, !tbaa !229
  br label %24

24:                                               ; preds = %34, %20
  %25 = load ptr, ptr %6, align 8, !tbaa !229
  %26 = icmp ne ptr %25, null
  br i1 %26, label %27, label %36

27:                                               ; preds = %24
  %28 = load ptr, ptr %6, align 8, !tbaa !229
  %29 = getelementptr inbounds nuw %struct.FFHWBaseEncodePicture, ptr %28, i32 0, i32 2
  %30 = load ptr, ptr %29, align 8, !tbaa !230
  store ptr %30, ptr %7, align 8, !tbaa !229
  %31 = load ptr, ptr %3, align 8, !tbaa !4
  %32 = load ptr, ptr %6, align 8, !tbaa !229
  %33 = call i32 @vaapi_encode_free(ptr noundef %31, ptr noundef %32)
  br label %34

34:                                               ; preds = %27
  %35 = load ptr, ptr %7, align 8, !tbaa !229
  store ptr %35, ptr %6, align 8, !tbaa !229
  br label %24, !llvm.loop !232

36:                                               ; preds = %24
  %37 = load ptr, ptr %5, align 8, !tbaa !33
  %38 = getelementptr inbounds nuw %struct.VAAPIEncodeContext, ptr %37, i32 0, i32 21
  call void @av_refstruct_pool_uninit(ptr noundef %38)
  %39 = load ptr, ptr %5, align 8, !tbaa !33
  %40 = getelementptr inbounds nuw %struct.VAAPIEncodeContext, ptr %39, i32 0, i32 19
  %41 = load i32, ptr %40, align 8, !tbaa !57
  %42 = icmp ne i32 %41, -1
  br i1 %42, label %43, label %61

43:                                               ; preds = %36
  %44 = load ptr, ptr %5, align 8, !tbaa !33
  %45 = getelementptr inbounds nuw %struct.VAAPIEncodeContext, ptr %44, i32 0, i32 20
  %46 = load ptr, ptr %45, align 8, !tbaa !62
  %47 = icmp ne ptr %46, null
  br i1 %47, label %48, label %58

48:                                               ; preds = %43
  %49 = load ptr, ptr %5, align 8, !tbaa !33
  %50 = getelementptr inbounds nuw %struct.VAAPIEncodeContext, ptr %49, i32 0, i32 20
  %51 = load ptr, ptr %50, align 8, !tbaa !62
  %52 = getelementptr inbounds nuw %struct.AVVAAPIDeviceContext, ptr %51, i32 0, i32 0
  %53 = load ptr, ptr %52, align 8, !tbaa !75
  %54 = load ptr, ptr %5, align 8, !tbaa !33
  %55 = getelementptr inbounds nuw %struct.VAAPIEncodeContext, ptr %54, i32 0, i32 19
  %56 = load i32, ptr %55, align 8, !tbaa !57
  %57 = call i32 @vaDestroyContext(ptr noundef %53, i32 noundef %56)
  br label %58

58:                                               ; preds = %48, %43
  %59 = load ptr, ptr %5, align 8, !tbaa !33
  %60 = getelementptr inbounds nuw %struct.VAAPIEncodeContext, ptr %59, i32 0, i32 19
  store i32 -1, ptr %60, align 8, !tbaa !57
  br label %61

61:                                               ; preds = %58, %36
  %62 = load ptr, ptr %5, align 8, !tbaa !33
  %63 = getelementptr inbounds nuw %struct.VAAPIEncodeContext, ptr %62, i32 0, i32 18
  %64 = load i32, ptr %63, align 4, !tbaa !38
  %65 = icmp ne i32 %64, -1
  br i1 %65, label %66, label %84

66:                                               ; preds = %61
  %67 = load ptr, ptr %5, align 8, !tbaa !33
  %68 = getelementptr inbounds nuw %struct.VAAPIEncodeContext, ptr %67, i32 0, i32 20
  %69 = load ptr, ptr %68, align 8, !tbaa !62
  %70 = icmp ne ptr %69, null
  br i1 %70, label %71, label %81

71:                                               ; preds = %66
  %72 = load ptr, ptr %5, align 8, !tbaa !33
  %73 = getelementptr inbounds nuw %struct.VAAPIEncodeContext, ptr %72, i32 0, i32 20
  %74 = load ptr, ptr %73, align 8, !tbaa !62
  %75 = getelementptr inbounds nuw %struct.AVVAAPIDeviceContext, ptr %74, i32 0, i32 0
  %76 = load ptr, ptr %75, align 8, !tbaa !75
  %77 = load ptr, ptr %5, align 8, !tbaa !33
  %78 = getelementptr inbounds nuw %struct.VAAPIEncodeContext, ptr %77, i32 0, i32 18
  %79 = load i32, ptr %78, align 4, !tbaa !38
  %80 = call i32 @vaDestroyConfig(ptr noundef %76, i32 noundef %79)
  br label %81

81:                                               ; preds = %71, %66
  %82 = load ptr, ptr %5, align 8, !tbaa !33
  %83 = getelementptr inbounds nuw %struct.VAAPIEncodeContext, ptr %82, i32 0, i32 18
  store i32 -1, ptr %83, align 4, !tbaa !38
  br label %84

84:                                               ; preds = %81, %61
  %85 = load ptr, ptr %5, align 8, !tbaa !33
  %86 = getelementptr inbounds nuw %struct.VAAPIEncodeContext, ptr %85, i32 0, i32 31
  call void @av_freep(ptr noundef %86)
  %87 = load ptr, ptr %5, align 8, !tbaa !33
  %88 = getelementptr inbounds nuw %struct.VAAPIEncodeContext, ptr %87, i32 0, i32 32
  call void @av_freep(ptr noundef %88)
  %89 = load ptr, ptr %4, align 8, !tbaa !31
  %90 = call i32 @ff_hw_base_encode_close(ptr noundef %89)
  store i32 0, ptr %2, align 4
  store i32 1, ptr %8, align 4
  br label %91

91:                                               ; preds = %84, %19
  call void @llvm.lifetime.end.p0(i64 8, ptr %7) #10
  call void @llvm.lifetime.end.p0(i64 8, ptr %6) #10
  call void @llvm.lifetime.end.p0(i64 8, ptr %5) #10
  call void @llvm.lifetime.end.p0(i64 8, ptr %4) #10
  %92 = load i32, ptr %2, align 4
  ret i32 %92
}