; Function Attrs: cold nounwind optsize uwtable
define noundef i32 @ff_vaapi_encode_close(ptr noundef %0) local_unnamed_addr #2 {
  %2 = getelementptr inbounds nuw i8, ptr %0, i64 32
  %3 = load ptr, ptr %2, align 8, !tbaa !4
  %4 = getelementptr inbounds nuw i8, ptr %3, i64 1152
  %5 = load ptr, ptr %4, align 8, !tbaa !189
  %.not = icmp eq ptr %5, null
  br i1 %.not, label %36, label %6

6:                                                ; preds = %1
  %7 = getelementptr inbounds nuw i8, ptr %3, i64 96
  %8 = load ptr, ptr %7, align 8, !tbaa !190
  %.not2732 = icmp eq ptr %8, null
  br i1 %.not2732, label %._crit_edge, label %.lr.ph

.lr.ph:                                           ; preds = %6, %.lr.ph
  %.02333 = phi ptr [ %10, %.lr.ph ], [ %8, %6 ]
  %9 = getelementptr inbounds nuw i8, ptr %.02333, i64 16
  %10 = load ptr, ptr %9, align 8, !tbaa !191
  %11 = tail call i32 @vaapi_encode_free(ptr noundef nonnull %0, ptr noundef nonnull %.02333)
  %.not27 = icmp eq ptr %10, null
  br i1 %.not27, label %._crit_edge, label %.lr.ph, !llvm.loop !193

._crit_edge:                                      ; preds = %.lr.ph, %6
  %12 = getelementptr inbounds nuw i8, ptr %3, i64 1320
  tail call void @av_refstruct_unref(ptr noundef nonnull %12) #9
  %13 = getelementptr inbounds nuw i8, ptr %3, i64 1304
  %14 = load i32, ptr %13, align 8, !tbaa !47
  %.not28 = icmp eq i32 %14, -1
  br i1 %.not28, label %22, label %15

15:                                               ; preds = %._crit_edge
  %16 = getelementptr inbounds nuw i8, ptr %3, i64 1312
  %17 = load ptr, ptr %16, align 8, !tbaa !52
  %.not29 = icmp eq ptr %17, null
  br i1 %.not29, label %21, label %18

18:                                               ; preds = %15
  %19 = load ptr, ptr %17, align 8, !tbaa !65
  %20 = tail call i32 @vaDestroyContext(ptr noundef %19, i32 noundef %14) #9
  br label %21

21:                                               ; preds = %18, %15
  store i32 -1, ptr %13, align 8, !tbaa !47
  br label %22

22:                                               ; preds = %21, %._crit_edge
  %23 = getelementptr inbounds nuw i8, ptr %3, i64 1300
  %24 = load i32, ptr %23, align 4, !tbaa !27
  %.not30 = icmp eq i32 %24, -1
  br i1 %.not30, label %32, label %25

25:                                               ; preds = %22
  %26 = getelementptr inbounds nuw i8, ptr %3, i64 1312
  %27 = load ptr, ptr %26, align 8, !tbaa !52
  %.not31 = icmp eq ptr %27, null
  br i1 %.not31, label %31, label %28

28:                                               ; preds = %25
  %29 = load ptr, ptr %27, align 8, !tbaa !65
  %30 = tail call i32 @vaDestroyConfig(ptr noundef %29, i32 noundef %24) #9
  br label %31

31:                                               ; preds = %28, %25
  store i32 -1, ptr %23, align 4, !tbaa !27
  br label %32

32:                                               ; preds = %31, %22
  %33 = getelementptr inbounds nuw i8, ptr %3, i64 1568
  tail call void @av_freep(ptr noundef nonnull %33) #9
  %34 = getelementptr inbounds nuw i8, ptr %3, i64 1576
  tail call void @av_freep(ptr noundef nonnull %34) #9
  %35 = tail call i32 @ff_hw_base_encode_close(ptr noundef nonnull %3) #9
  br label %36

36:                                               ; preds = %1, %32
  ret i32 0
}